target datalayout = "e-m:e-p270:32:32-p271:32:32-p272:64:64-i64:64-i128:128-f80:128-n8:16:32:64-S128"
target triple = "x86_64-pc-linux-gnu"

@.str.2381 = private unnamed_addr constant [13 x i8] c"%.2f dB (%d)\00", align 1

; Function Attrs: nounwind uwtable
define internal void @ul_cqi_conversion_fn(ptr noundef %0, i16 noundef zeroext %1) #0 {
  %3 = alloca ptr, align 8
  %4 = alloca i16, align 2
  store ptr %0, ptr %3, align 8
  store i16 %1, ptr %4, align 2
  %5 = load ptr, ptr %3, align 8
  %6 = load i16, ptr %4, align 2
  %7 = uitofp i16 %6 to float
  %8 = fdiv float %7, 2.000000e+00
  %9 = fpext float %8 to double
  %10 = fsub double %9, 6.400000e+01
  %11 = load i16, ptr %4, align 2
  %12 = zext i16 %11 to i32
  %13 = call i32 (ptr, i64, ptr, ...) @snprintf(ptr noundef %5, i64 noundef 240, ptr noundef @.str.2381, double noundef %10, i32 noundef %12) #4
  ret void
}