; Function Attrs: nofree nounwind uwtable
define internal void @ul_cqi_conversion_fn(ptr noundef writeonly captures(none) %0, i16 noundef zeroext %1) #1 {
  %3 = uitofp i16 %1 to float
  %4 = fmul float %3, 5.000000e-01
  %5 = fpext float %4 to double
  %6 = fadd double %5, -6.400000e+01
  %7 = zext i16 %1 to i32
  %8 = tail call i32 (ptr, i64, ptr, ...) @snprintf(ptr noundef nonnull dereferenceable(1) %0, i64 noundef 240, ptr noundef nonnull @.str.2381, double noundef %6, i32 noundef %7) #7
  ret void
}